; Function Attrs: null_pointer_is_valid sspstrong uwtable
define internal i32 @dissect_logcat_text_thread(ptr noundef %0, ptr noundef %1, ptr noundef %2, ptr readnone captures(none) %3) #0 {
  %5 = load i32, ptr @exported_pdu_tap, align 4
  %6 = tail call zeroext i1 @have_tap_listener(i32 noundef %5)
  br i1 %6, label %7, label %add_exported_pdu.exit

7:                                                ; preds = %4
  %8 = tail call ptr @export_pdu_create_tags(ptr noundef %1, ptr noundef nonnull @.str.20, i16 noundef zeroext 12, ptr noundef null)
  %9 = tail call i32 @tvb_captured_length(ptr noundef %0)
  %10 = getelementptr inbounds nuw i8, ptr %8, i64 16
  store i32 %9, ptr %10, align 8
  %11 = tail call i32 @tvb_reported_length(ptr noundef %0)
  %12 = getelementptr inbounds nuw i8, ptr %8, i64 20
  store i32 %11, ptr %12, align 4
  %13 = getelementptr inbounds nuw i8, ptr %8, i64 24
  store ptr %0, ptr %13, align 8
  %14 = load i32, ptr @exported_pdu_tap, align 4
  tail call void @tap_queue_packet(i32 noundef %14, ptr noundef %1, ptr noundef %8)
  br label %add_exported_pdu.exit

add_exported_pdu.exit:                            ; preds = %4, %7
  %15 = getelementptr inbounds nuw i8, ptr %1, i64 232
  store i32 7, ptr %15, align 8
  %16 = getelementptr inbounds nuw i8, ptr %1, i64 236
  store i32 1, ptr %16, align 4
  %17 = getelementptr inbounds nuw i8, ptr %1, i64 240
  store ptr @.str.30, ptr %17, align 8
  %18 = getelementptr inbounds nuw i8, ptr %1, i64 248
  store ptr null, ptr %18, align 8
  %19 = getelementptr inbounds nuw i8, ptr %1, i64 208
  store i32 7, ptr %19, align 8
  %20 = getelementptr inbounds nuw i8, ptr %1, i64 212
  store i32 1, ptr %20, align 4
  %21 = getelementptr inbounds nuw i8, ptr %1, i64 216
  store ptr @.str.30, ptr %21, align 8
  %22 = getelementptr inbounds nuw i8, ptr %1, i64 224
  store ptr null, ptr %22, align 8
  %23 = tail call fastcc i32 @dissect_logcat_text(ptr noundef %0, ptr noundef %2, ptr noundef %1, ptr noundef nonnull @__const.dissect_logcat_text_thread.dinfo)
  ret i32 %23
}